target datalayout = "e-m:e-p270:32:32-p271:32:32-p272:64:64-i64:64-i128:128-f80:128-n8:16:32:64-S128"
target triple = "x86_64-pc-linux-gnu"

%struct.SDL_HIDAPI_Device = type { ptr, ptr, ptr, ptr, i16, i16, i16, ptr, %struct.SDL_GUID, i32, i32, i32, i32, i16, i16, i8, i32, i32, i32, ptr, ptr, ptr, ptr, %struct.SDL_AtomicInt, i32, ptr, i8, i8, i8, ptr, i32, ptr, ptr }
%struct.SDL_GUID = type { [16 x i8] }
%struct.SDL_AtomicInt = type { i32 }
%struct.SDL_Joystick = type { i32, ptr, ptr, ptr, %struct.SDL_GUID, i16, i64, i8, i8, i32, ptr, i32, ptr, i32, ptr, i32, ptr, i32, ptr, i32, i32, ptr, i16, i16, i64, i64, i16, i16, i64, i64, i8, i8, i8, i64, i8, i32, i32, i32, i8, i32, ptr, i32, ptr, [3 x [3 x float]], i64, ptr, ptr, i32, i32, ptr }

; Function Attrs: nounwind uwtable
define internal i32 @HIDAPI_DriverLg4ff_GetNumberOfButtons(i32 noundef %0) #0 {
  %2 = alloca i32, align 4
  %3 = alloca i32, align 4
  store i32 %0, ptr %3, align 4
  %4 = load i32, ptr %3, align 4
  switch i32 %4, label %11 [
    i32 49743, label %5
    i32 49819, label %6
    i32 49817, label %7
    i32 49818, label %8
    i32 49816, label %9
    i32 49812, label %10
  ]

5:                                                ; preds = %1
  store i32 25, ptr %2, align 4
  br label %14

6:                                                ; preds = %1
  store i32 23, ptr %2, align 4
  br label %14

7:                                                ; preds = %1
  store i32 19, ptr %2, align 4
  br label %14

8:                                                ; preds = %1
  store i32 21, ptr %2, align 4
  br label %14

9:                                                ; preds = %1
  store i32 14, ptr %2, align 4
  br label %14

10:                                               ; preds = %1
  store i32 13, ptr %2, align 4
  br label %14

11:                                               ; preds = %1
  br label %12

12:                                               ; preds = %11
  br label %13

13:                                               ; preds = %12
  store i32 0, ptr %2, align 4
  br label %14

14:                                               ; preds = %13, %10, %9, %8, %7, %6, %5
  %15 = load i32, ptr %2, align 4
  ret i32 %15
}

; Function Attrs: nounwind uwtable
define internal zeroext i1 @HIDAPI_DriverLg4ff_OpenJoystick(ptr noundef %0, ptr noundef %1) #0 {
  %3 = alloca ptr, align 8
  %4 = alloca ptr, align 8
  store ptr %0, ptr %3, align 8
  store ptr %1, ptr %4, align 8
  call void @SDL_AssertJoysticksLocked()
  %5 = load ptr, ptr %4, align 8
  %6 = getelementptr inbounds nuw %struct.SDL_Joystick, ptr %5, i32 0, i32 13
  store i32 1, ptr %6, align 8
  %7 = load ptr, ptr %3, align 8
  %8 = getelementptr inbounds nuw %struct.SDL_HIDAPI_Device, ptr %7, i32 0, i32 5
  %9 = load i16, ptr %8, align 2
  %10 = zext i16 %9 to i32
  %11 = call i32 @HIDAPI_DriverLg4ff_GetNumberOfButtons(i32 noundef %10)
  %12 = load ptr, ptr %4, align 8
  %13 = getelementptr inbounds nuw %struct.SDL_Joystick, ptr %12, i32 0, i32 15
  store i32 %11, ptr %13, align 8
  %14 = load ptr, ptr %3, align 8
  %15 = getelementptr inbounds nuw %struct.SDL_HIDAPI_Device, ptr %14, i32 0, i32 5
  %16 = load i16, ptr %15, align 2
  %17 = zext i16 %16 to i32
  switch i32 %17, label %27 [
    i32 49743, label %18
    i32 49819, label %18
    i32 49817, label %18
    i32 49812, label %18
    i32 49818, label %21
    i32 49816, label %24
  ]

18:                                               ; preds = %2, %2, %2, %2
  %19 = load ptr, ptr %4, align 8
  %20 = getelementptr inbounds nuw %struct.SDL_Joystick, ptr %19, i32 0, i32 9
  store i32 4, ptr %20, align 4
  br label %30

21:                                               ; preds = %2
  %22 = load ptr, ptr %4, align 8
  %23 = getelementptr inbounds nuw %struct.SDL_Joystick, ptr %22, i32 0, i32 9
  store i32 3, ptr %23, align 4
  br label %30

24:                                               ; preds = %2
  %25 = load ptr, ptr %4, align 8
  %26 = getelementptr inbounds nuw %struct.SDL_Joystick, ptr %25, i32 0, i32 9
  store i32 3, ptr %26, align 4
  br label %30

27:                                               ; preds = %2
  br label %28

28:                                               ; preds = %27
  br label %29

29:                                               ; preds = %28
  br label %30

30:                                               ; preds = %29, %24, %21, %18
  ret i1 true
}