; Function Attrs: nounwind uwtable
define internal noundef zeroext i1 @HIDAPI_DriverLg4ff_OpenJoystick(ptr noundef readonly captures(none) %0, ptr noundef writeonly captures(none) initializes((96, 100), (112, 116)) %1) #0 {
  tail call void @SDL_AssertJoysticksLocked() #8
  %3 = getelementptr inbounds nuw i8, ptr %1, i64 96
  store i32 1, ptr %3, align 8
  %4 = getelementptr inbounds nuw i8, ptr %0, i64 34
  %5 = load i16, ptr %4, align 2
  switch i16 %5, label %11 [
    i16 -15793, label %HIDAPI_DriverLg4ff_GetNumberOfButtons.exit
    i16 -15717, label %6
    i16 -15719, label %7
    i16 -15718, label %8
    i16 -15720, label %9
    i16 -15724, label %10
  ]

6:                                                ; preds = %2
  br label %HIDAPI_DriverLg4ff_GetNumberOfButtons.exit

7:                                                ; preds = %2
  br label %HIDAPI_DriverLg4ff_GetNumberOfButtons.exit

8:                                                ; preds = %2
  br label %HIDAPI_DriverLg4ff_GetNumberOfButtons.exit

9:                                                ; preds = %2
  br label %HIDAPI_DriverLg4ff_GetNumberOfButtons.exit

10:                                               ; preds = %2
  br label %HIDAPI_DriverLg4ff_GetNumberOfButtons.exit

11:                                               ; preds = %2
  br label %HIDAPI_DriverLg4ff_GetNumberOfButtons.exit

HIDAPI_DriverLg4ff_GetNumberOfButtons.exit:       ; preds = %2, %6, %7, %8, %9, %10, %11
  %.0.i = phi i32 [ 0, %11 ], [ 13, %10 ], [ 14, %9 ], [ 21, %8 ], [ 19, %7 ], [ 23, %6 ], [ 25, %2 ]
  %12 = getelementptr inbounds nuw i8, ptr %1, i64 112
  store i32 %.0.i, ptr %12, align 8
  %13 = load i16, ptr %4, align 2
  switch i16 %13, label %16 [
    i16 -15793, label %.sink.split
    i16 -15717, label %.sink.split
    i16 -15719, label %.sink.split
    i16 -15724, label %.sink.split
    i16 -15718, label %14
    i16 -15720, label %14
  ]

14:                                               ; preds = %HIDAPI_DriverLg4ff_GetNumberOfButtons.exit, %HIDAPI_DriverLg4ff_GetNumberOfButtons.exit
  br label %.sink.split

.sink.split:                                      ; preds = %HIDAPI_DriverLg4ff_GetNumberOfButtons.exit, %HIDAPI_DriverLg4ff_GetNumberOfButtons.exit, %HIDAPI_DriverLg4ff_GetNumberOfButtons.exit, %HIDAPI_DriverLg4ff_GetNumberOfButtons.exit, %14
  %.sink = phi i32 [ 3, %14 ], [ 4, %HIDAPI_DriverLg4ff_GetNumberOfButtons.exit ], [ 4, %HIDAPI_DriverLg4ff_GetNumberOfButtons.exit ], [ 4, %HIDAPI_DriverLg4ff_GetNumberOfButtons.exit ], [ 4, %HIDAPI_DriverLg4ff_GetNumberOfButtons.exit ]
  %15 = getelementptr inbounds nuw i8, ptr %1, i64 68
  store i32 %.sink, ptr %15, align 4
  br label %16

16:                                               ; preds = %.sink.split, %HIDAPI_DriverLg4ff_GetNumberOfButtons.exit
  ret i1 true
}